target datalayout = "e-m:e-p270:32:32-p271:32:32-p272:64:64-i64:64-i128:128-f80:128-n8:16:32:64-S128"
target triple = "x86_64-unknown-linux-gnu"

%"class.std::set.0" = type { %"class.std::_Rb_tree.1" }
%"class.std::_Rb_tree.1" = type { %"struct.std::_Rb_tree<QuantLib::Observer *, QuantLib::Observer *, std::_Identity<QuantLib::Observer *>, std::less<QuantLib::Observer *>>::_Rb_tree_impl" }
%"struct.std::_Rb_tree<QuantLib::Observer *, QuantLib::Observer *, std::_Identity<QuantLib::Observer *>, std::less<QuantLib::Observer *>>::_Rb_tree_impl" = type { [8 x i8], %"struct.std::_Rb_tree_header" }
%"struct.std::_Rb_tree_header" = type { %"struct.std::_Rb_tree_node_base", i64 }
%"struct.std::_Rb_tree_node_base" = type { i32, ptr, ptr, ptr }
%"class.std::set" = type { %"class.std::_Rb_tree" }
%"class.std::_Rb_tree" = type { %"struct.std::_Rb_tree<boost::shared_ptr<QuantLib::Observable>, boost::shared_ptr<QuantLib::Observable>, std::_Identity<boost::shared_ptr<QuantLib::Observable>>, std::less<boost::shared_ptr<QuantLib::Observable>>>::_Rb_tree_impl" }
%"struct.std::_Rb_tree<boost::shared_ptr<QuantLib::Observable>, boost::shared_ptr<QuantLib::Observable>, std::_Identity<boost::shared_ptr<QuantLib::Observable>>, std::less<boost::shared_ptr<QuantLib::Observable>>>::_Rb_tree_impl" = type { [8 x i8], %"struct.std::_Rb_tree_header" }
%"class.boost::detail::shared_count" = type { ptr }
%"class.QuantLib::Observable" = type { ptr, %"class.std::set.0" }
%"class.QuantLib::Observer" = type { ptr, %"class.std::set" }
%"class.QuantLib::IndexedCashFlow" = type <{ %"class.QuantLib::CashFlow.base", [4 x i8], double, double, %"class.boost::shared_ptr.15", %"class.QuantLib::Date", %"class.QuantLib::Date", %"class.QuantLib::Date", i8, [7 x i8], %"class.QuantLib::Observable", %"class.QuantLib::Observer" }>
%"class.QuantLib::CashFlow.base" = type <{ %"class.QuantLib::Event.base", %"class.QuantLib::LazyObject.base" }>
%"class.QuantLib::Event.base" = type { ptr }
%"class.QuantLib::LazyObject.base" = type <{ ptr, i8, i8, i8, i8 }>
%"class.boost::shared_ptr.15" = type { ptr, %"class.boost::detail::shared_count" }
%"class.QuantLib::Date" = type { i64 }

; Function Attrs: mustprogress uwtable
define void @_ZNK8QuantLib15IndexedCashFlow19performCalculationsEv(ptr noundef nonnull align 8 dereferenceable(81) %this) unnamed_addr #2 align 2 {
entry:
  %this.addr = alloca ptr, align 8
  %I0 = alloca double, align 8
  %I1 = alloca double, align 8
  store ptr %this, ptr %this.addr, align 8, !tbaa !3
  %this1 = load ptr, ptr %this.addr, align 8
  call void @llvm.lifetime.start.p0(i64 8, ptr %I0) #13
  %vtable = load ptr, ptr %this1, align 8, !tbaa !20
  %vfn = getelementptr inbounds ptr, ptr %vtable, i64 13
  %0 = load ptr, ptr %vfn, align 8
  %call = call noundef double %0(ptr noundef nonnull align 8 dereferenceable(81) %this1)
  store double %call, ptr %I0, align 8, !tbaa !24
  call void @llvm.lifetime.start.p0(i64 8, ptr %I1) #13
  %vtable2 = load ptr, ptr %this1, align 8, !tbaa !20
  %vfn3 = getelementptr inbounds ptr, ptr %vtable2, i64 14
  %1 = load ptr, ptr %vfn3, align 8
  %call4 = call noundef double %1(ptr noundef nonnull align 8 dereferenceable(81) %this1)
  store double %call4, ptr %I1, align 8, !tbaa !24
  %growthOnly_ = getelementptr inbounds nuw %"class.QuantLib::IndexedCashFlow", ptr %this1, i32 0, i32 8
  %2 = load i8, ptr %growthOnly_, align 8, !tbaa !36, !range !15, !noundef !16
  %loadedv = trunc i8 %2 to i1
  br i1 %loadedv, label %if.then, label %if.else

if.then:                                          ; preds = %entry
  %notional_ = getelementptr inbounds nuw %"class.QuantLib::IndexedCashFlow", ptr %this1, i32 0, i32 3
  %3 = load double, ptr %notional_, align 8, !tbaa !27
  %4 = load double, ptr %I1, align 8, !tbaa !24
  %5 = load double, ptr %I0, align 8, !tbaa !24
  %div = fdiv double %4, %5
  %sub = fsub double %div, 1.000000e+00
  %mul = fmul double %3, %sub
  %amount_ = getelementptr inbounds nuw %"class.QuantLib::IndexedCashFlow", ptr %this1, i32 0, i32 2
  store double %mul, ptr %amount_, align 8, !tbaa !38
  br label %if.end

if.else:                                          ; preds = %entry
  %notional_5 = getelementptr inbounds nuw %"class.QuantLib::IndexedCashFlow", ptr %this1, i32 0, i32 3
  %6 = load double, ptr %notional_5, align 8, !tbaa !27
  %7 = load double, ptr %I1, align 8, !tbaa !24
  %8 = load double, ptr %I0, align 8, !tbaa !24
  %div6 = fdiv double %7, %8
  %mul7 = fmul double %6, %div6
  %amount_8 = getelementptr inbounds nuw %"class.QuantLib::IndexedCashFlow", ptr %this1, i32 0, i32 2
  store double %mul7, ptr %amount_8, align 8, !tbaa !38
  br label %if.end

if.end:                                           ; preds = %if.else, %if.then
  call void @llvm.lifetime.end.p0(i64 8, ptr %I1) #13
  call void @llvm.lifetime.end.p0(i64 8, ptr %I0) #13
  ret void
}

; Function Attrs: uwtable
define void @_ZThn8_NK8QuantLib15IndexedCashFlow19performCalculationsEv(ptr noundef %this) unnamed_addr #7 align 2 {
entry:
  %this.addr = alloca ptr, align 8
  store ptr %this, ptr %this.addr, align 8, !tbaa !3
  %this1 = load ptr, ptr %this.addr, align 8
  %0 = getelementptr inbounds i8, ptr %this1, i64 -8
  tail call void @_ZNK8QuantLib15IndexedCashFlow19performCalculationsEv(ptr noundef nonnull align 8 dereferenceable(81) %0)
  ret void
}