; Function Attrs: uwtable
define void @_ZThn8_NK8QuantLib15IndexedCashFlow19performCalculationsEv(ptr noundef %this) unnamed_addr #12 align 2 {
entry:
  %0 = getelementptr inbounds i8, ptr %this, i64 -8
  %vtable.i = load ptr, ptr %0, align 8, !tbaa !33
  %vfn.i = getelementptr inbounds i8, ptr %vtable.i, i64 104
  %1 = load ptr, ptr %vfn.i, align 8
  %call.i = tail call noundef double %1(ptr noundef nonnull align 8 dereferenceable(81) %0)
  %vtable2.i = load ptr, ptr %0, align 8, !tbaa !33
  %vfn3.i = getelementptr inbounds i8, ptr %vtable2.i, i64 112
  %2 = load ptr, ptr %vfn3.i, align 8
  %call4.i = tail call noundef double %2(ptr noundef nonnull align 8 dereferenceable(81) %0)
  %growthOnly_.i = getelementptr inbounds i8, ptr %this, i64 72
  %3 = load i8, ptr %growthOnly_.i, align 8, !tbaa !54, !range !26, !noundef !27
  %loadedv.i = trunc nuw i8 %3 to i1
  %notional_.i = getelementptr inbounds i8, ptr %this, i64 24
  %4 = load double, ptr %notional_.i, align 8, !tbaa !46
  %div.i = fdiv double %call4.i, %call.i
  %sub.i = fadd double %div.i, -1.000000e+00
  %div.sink.i = select i1 %loadedv.i, double %sub.i, double %div.i
  %mul7.i = fmul double %4, %div.sink.i
  %5 = getelementptr inbounds i8, ptr %this, i64 16
  store double %mul7.i, ptr %5, align 8
  ret void
}